; Function Attrs: mustprogress uwtable
define hidden noundef zeroext i1 @_ZN3smt10theory_seq15propagate_ne2eqEj(ptr noundef nonnull align 8 dereferenceable(4328) %this, i32 noundef %idx) local_unnamed_addr #3 align 2 {
entry:
  %m_elems.i = getelementptr inbounds i8, ptr %this, i64 320
  %m_index.i = getelementptr inbounds i8, ptr %this, i64 336
  %0 = load ptr, ptr %m_index.i, align 8
  %idxprom.i.i = zext i32 %idx to i64
  %arrayidx.i.i = getelementptr inbounds i32, ptr %0, i64 %idxprom.i.i
  %1 = load i32, ptr %arrayidx.i.i, align 4
  %2 = load ptr, ptr %m_elems.i, align 8
  %idxprom.i1.i = zext i32 %1 to i64
  %m_eqs.i = getelementptr inbounds %"class.smt::theory_seq::ne", ptr %2, i64 %idxprom.i1.i, i32 2
  %3 = load ptr, ptr %m_eqs.i, align 8
  %cmp.i = icmp eq ptr %3, null
  br i1 %cmp.i, label %return, label %_ZNK6vectorISt4pairI10ref_vectorI4expr11ast_managerES4_ELb1EjE4sizeEv.exit

_ZNK6vectorISt4pairI10ref_vectorI4expr11ast_managerES4_ELb1EjE4sizeEv.exit: ; preds = %entry
  %arrayidx.i = getelementptr inbounds i8, ptr %3, i64 -4
  %4 = load i32, ptr %arrayidx.i, align 4
  %cmp.not = icmp eq i32 %4, 1
  br i1 %cmp.not, label %if.end, label %return

if.end:                                           ; preds = %_ZNK6vectorISt4pairI10ref_vectorI4expr11ast_managerES4_ELb1EjE4sizeEv.exit
  %second = getelementptr inbounds i8, ptr %3, i64 16
  %m_nodes.i = getelementptr inbounds i8, ptr %3, i64 8
  %5 = load ptr, ptr %m_nodes.i, align 8
  %cmp.i.i = icmp eq ptr %5, null
  br i1 %cmp.i.i, label %return.sink.split, label %_ZNK15ref_vector_coreI4expr19ref_manager_wrapperIS0_11ast_managerEE5emptyEv.exit

_ZNK15ref_vector_coreI4expr19ref_manager_wrapperIS0_11ast_managerEE5emptyEv.exit: ; preds = %if.end
  %arrayidx.i.i9 = getelementptr inbounds i8, ptr %5, i64 -4
  %6 = load i32, ptr %arrayidx.i.i9, align 4
  %cmp3.i.i = icmp eq i32 %6, 0
  br i1 %cmp3.i.i, label %return.sink.split, label %if.end9

if.end9:                                          ; preds = %_ZNK15ref_vector_coreI4expr19ref_manager_wrapperIS0_11ast_managerEE5emptyEv.exit
  %m_nodes.i10 = getelementptr inbounds i8, ptr %3, i64 24
  %7 = load ptr, ptr %m_nodes.i10, align 8
  %cmp.i.i11 = icmp eq ptr %7, null
  br i1 %cmp.i.i11, label %return.sink.split, label %_ZNK15ref_vector_coreI4expr19ref_manager_wrapperIS0_11ast_managerEE5emptyEv.exit15

_ZNK15ref_vector_coreI4expr19ref_manager_wrapperIS0_11ast_managerEE5emptyEv.exit15: ; preds = %if.end9
  %arrayidx.i.i13 = getelementptr inbounds i8, ptr %7, i64 -4
  %8 = load i32, ptr %arrayidx.i.i13, align 4
  %cmp3.i.i14 = icmp eq i32 %8, 0
  br i1 %cmp3.i.i14, label %return.sink.split, label %return

return.sink.split:                                ; preds = %_ZNK15ref_vector_coreI4expr19ref_manager_wrapperIS0_11ast_managerEE5emptyEv.exit15, %if.end9, %_ZNK15ref_vector_coreI4expr19ref_manager_wrapperIS0_11ast_managerEE5emptyEv.exit, %if.end
  %.sink = phi ptr [ %second, %if.end ], [ %second, %_ZNK15ref_vector_coreI4expr19ref_manager_wrapperIS0_11ast_managerEE5emptyEv.exit ], [ %3, %if.end9 ], [ %3, %_ZNK15ref_vector_coreI4expr19ref_manager_wrapperIS0_11ast_managerEE5emptyEv.exit15 ]
  %call12 = tail call noundef zeroext i1 @_ZN3smt10theory_seq15propagate_ne2eqEjRK10ref_vectorI4expr11ast_managerE(ptr noundef nonnull align 8 dereferenceable(4328) %this, i32 noundef %idx, ptr noundef nonnull align 8 dereferenceable(16) %.sink)
  br label %return

return:                                           ; preds = %return.sink.split, %entry, %_ZNK15ref_vector_coreI4expr19ref_manager_wrapperIS0_11ast_managerEE5emptyEv.exit15, %_ZNK6vectorISt4pairI10ref_vectorI4expr11ast_managerES4_ELb1EjE4sizeEv.exit
  %retval.0 = phi i1 [ false, %_ZNK6vectorISt4pairI10ref_vectorI4expr11ast_managerES4_ELb1EjE4sizeEv.exit ], [ false, %_ZNK15ref_vector_coreI4expr19ref_manager_wrapperIS0_11ast_managerEE5emptyEv.exit15 ], [ false, %entry ], [ %call12, %return.sink.split ]
  ret i1 %retval.0
}